target datalayout = "e-m:e-p270:32:32-p271:32:32-p272:64:64-i64:64-i128:128-f80:128-n8:16:32:64-S128"
target triple = "x86_64-pc-linux-gnu"

%struct.DdManager = type { %struct.DdNode, ptr, ptr, ptr, ptr, ptr, ptr, ptr, i32, i32, double, double, double, i32, i32, i32, i32, i32, i32, ptr, ptr, %struct.DdSubtable, i32, i32, i32, i32, i32, i32, i32, double, i32, i32, i32, ptr, i64, double, i32, ptr, ptr, ptr, ptr, ptr, ptr, ptr, i32, ptr, ptr, ptr, ptr, ptr, ptr, i32, i32, i32, double, i32, i32, i32, i32, double, double, i32, i32, i32, i32, i32, i32, i32, i32, i32, ptr, ptr, i32, i32, i32, i32, i32, i32, ptr, ptr, ptr, ptr, ptr, ptr, ptr, ptr, i32, i64, i64, i64, i32, i64, i64, double, double, double, double, double, double, i32, ptr, ptr, i64 }
%struct.DdNode = type { i32, i32, ptr, %union.anon, i64 }
%union.anon = type { %struct.DdChildren }
%struct.DdChildren = type { ptr, ptr }
%struct.DdSubtable = type { ptr, i32, i32, i32, i32, i32, i32, i32, i32, i32, i32, i32 }

; Function Attrs: nounwind uwtable
define ptr @Cudd_bddVectorCompose(ptr noundef %0, ptr noundef %1, ptr noundef %2) #0 {
  %4 = alloca ptr, align 8
  %5 = alloca ptr, align 8
  %6 = alloca ptr, align 8
  %7 = alloca ptr, align 8
  %8 = alloca ptr, align 8
  %9 = alloca ptr, align 8
  %10 = alloca i32, align 4
  %11 = alloca i32, align 4
  %12 = alloca i32, align 4
  store ptr %0, ptr %5, align 8, !tbaa !3
  store ptr %1, ptr %6, align 8, !tbaa !8
  store ptr %2, ptr %7, align 8, !tbaa !44
  call void @llvm.lifetime.start.p0(i64 8, ptr %8) #6
  call void @llvm.lifetime.start.p0(i64 8, ptr %9) #6
  call void @llvm.lifetime.start.p0(i64 4, ptr %10) #6
  call void @llvm.lifetime.start.p0(i64 4, ptr %11) #6
  br label %13

13:                                               ; preds = %74, %3
  %14 = load ptr, ptr %5, align 8, !tbaa !3
  %15 = getelementptr inbounds nuw %struct.DdManager, ptr %14, i32 0, i32 55
  store i32 0, ptr %15, align 8, !tbaa !29
  %16 = load ptr, ptr %5, align 8, !tbaa !3
  %17 = call ptr @cuddHashTableInit(ptr noundef %16, i32 noundef 1, i32 noundef 2)
  store ptr %17, ptr %8, align 8, !tbaa !38
  %18 = load ptr, ptr %8, align 8, !tbaa !38
  %19 = icmp eq ptr %18, null
  br i1 %19, label %20, label %21

20:                                               ; preds = %13
  store ptr null, ptr %4, align 8
  store i32 1, ptr %12, align 4
  br label %92

21:                                               ; preds = %13
  %22 = load ptr, ptr %5, align 8, !tbaa !3
  %23 = getelementptr inbounds nuw %struct.DdManager, ptr %22, i32 0, i32 15
  %24 = load i32, ptr %23, align 8, !tbaa !12
  %25 = sub nsw i32 %24, 1
  store i32 %25, ptr %10, align 4, !tbaa !10
  br label %26

26:                                               ; preds = %52, %21
  %27 = load i32, ptr %10, align 4, !tbaa !10
  %28 = icmp sge i32 %27, 0
  br i1 %28, label %29, label %55

29:                                               ; preds = %26
  %30 = load ptr, ptr %5, align 8, !tbaa !3
  %31 = getelementptr inbounds nuw %struct.DdManager, ptr %30, i32 0, i32 39
  %32 = load ptr, ptr %31, align 8, !tbaa !60
  %33 = load i32, ptr %10, align 4, !tbaa !10
  %34 = sext i32 %33 to i64
  %35 = getelementptr inbounds i32, ptr %32, i64 %34
  %36 = load i32, ptr %35, align 4, !tbaa !10
  store i32 %36, ptr %11, align 4, !tbaa !10
  %37 = load ptr, ptr %7, align 8, !tbaa !44
  %38 = load i32, ptr %11, align 4, !tbaa !10
  %39 = sext i32 %38 to i64
  %40 = getelementptr inbounds ptr, ptr %37, i64 %39
  %41 = load ptr, ptr %40, align 8, !tbaa !8
  %42 = load ptr, ptr %5, align 8, !tbaa !3
  %43 = getelementptr inbounds nuw %struct.DdManager, ptr %42, i32 0, i32 41
  %44 = load ptr, ptr %43, align 8, !tbaa !28
  %45 = load i32, ptr %11, align 4, !tbaa !10
  %46 = sext i32 %45 to i64
  %47 = getelementptr inbounds ptr, ptr %44, i64 %46
  %48 = load ptr, ptr %47, align 8, !tbaa !8
  %49 = icmp ne ptr %41, %48
  br i1 %49, label %50, label %51

50:                                               ; preds = %29
  br label %55

51:                                               ; preds = %29
  br label %52

52:                                               ; preds = %51
  %53 = load i32, ptr %10, align 4, !tbaa !10
  %54 = add nsw i32 %53, -1
  store i32 %54, ptr %10, align 4, !tbaa !10
  br label %26, !llvm.loop !69

55:                                               ; preds = %50, %26
  %56 = load ptr, ptr %5, align 8, !tbaa !3
  %57 = load ptr, ptr %8, align 8, !tbaa !38
  %58 = load ptr, ptr %6, align 8, !tbaa !8
  %59 = load ptr, ptr %7, align 8, !tbaa !44
  %60 = load i32, ptr %10, align 4, !tbaa !10
  %61 = call ptr @cuddBddVectorComposeRecur(ptr noundef %56, ptr noundef %57, ptr noundef %58, ptr noundef %59, i32 noundef %60)
  store ptr %61, ptr %9, align 8, !tbaa !8
  %62 = load ptr, ptr %9, align 8, !tbaa !8
  %63 = icmp ne ptr %62, null
  br i1 %63, label %64, label %72

64:                                               ; preds = %55
  %65 = load ptr, ptr %9, align 8, !tbaa !8
  %66 = ptrtoint ptr %65 to i64
  %67 = and i64 %66, -2
  %68 = inttoptr i64 %67 to ptr
  %69 = getelementptr inbounds nuw %struct.DdNode, ptr %68, i32 0, i32 1
  %70 = load i32, ptr %69, align 4, !tbaa !35
  %71 = add i32 %70, 1
  store i32 %71, ptr %69, align 4, !tbaa !35
  br label %72

72:                                               ; preds = %64, %55
  %73 = load ptr, ptr %8, align 8, !tbaa !38
  call void @cuddHashTableQuit(ptr noundef %73)
  br label %74

74:                                               ; preds = %72
  %75 = load ptr, ptr %5, align 8, !tbaa !3
  %76 = getelementptr inbounds nuw %struct.DdManager, ptr %75, i32 0, i32 55
  %77 = load i32, ptr %76, align 8, !tbaa !29
  %78 = icmp eq i32 %77, 1
  br i1 %78, label %13, label %79, !llvm.loop !70

79:                                               ; preds = %74
  %80 = load ptr, ptr %9, align 8, !tbaa !8
  %81 = icmp ne ptr %80, null
  br i1 %81, label %82, label %90

82:                                               ; preds = %79
  %83 = load ptr, ptr %9, align 8, !tbaa !8
  %84 = ptrtoint ptr %83 to i64
  %85 = and i64 %84, -2
  %86 = inttoptr i64 %85 to ptr
  %87 = getelementptr inbounds nuw %struct.DdNode, ptr %86, i32 0, i32 1
  %88 = load i32, ptr %87, align 4, !tbaa !35
  %89 = add i32 %88, -1
  store i32 %89, ptr %87, align 4, !tbaa !35
  br label %90

90:                                               ; preds = %82, %79
  %91 = load ptr, ptr %9, align 8, !tbaa !8
  store ptr %91, ptr %4, align 8
  store i32 1, ptr %12, align 4
  br label %92

92:                                               ; preds = %90, %20
  call void @llvm.lifetime.end.p0(i64 4, ptr %11) #6
  call void @llvm.lifetime.end.p0(i64 4, ptr %10) #6
  call void @llvm.lifetime.end.p0(i64 8, ptr %9) #6
  call void @llvm.lifetime.end.p0(i64 8, ptr %8) #6
  %93 = load ptr, ptr %4, align 8
  ret ptr %93
}