; Function Attrs: nounwind uwtable
define ptr @Cudd_bddVectorCompose(ptr noundef initializes((448, 452)) %0, ptr noundef %1, ptr noundef %2) local_unnamed_addr #0 {
  %4 = getelementptr inbounds nuw i8, ptr %0, i64 448
  store i32 0, ptr %4, align 8, !tbaa !26
  %5 = tail call ptr @cuddHashTableInit(ptr noundef %0, i32 noundef 1, i32 noundef 2) #7
  %6 = icmp eq ptr %5, null
  br i1 %6, label %.loopexit, label %.lr.ph

.lr.ph:                                           ; preds = %3
  %7 = getelementptr inbounds nuw i8, ptr %0, i64 136
  %8 = getelementptr inbounds nuw i8, ptr %0, i64 328
  %9 = getelementptr inbounds nuw i8, ptr %0, i64 344
  br label %10

10:                                               ; preds = %.lr.ph, %.backedge
  %11 = phi ptr [ %5, %.lr.ph ], [ %33, %.backedge ]
  %12 = load i32, ptr %7, align 8, !tbaa !3
  %13 = zext i32 %12 to i64
  %smin = tail call i32 @llvm.smin.i32(i32 %12, i32 0)
  %14 = add i32 %smin, -1
  br label %15

15:                                               ; preds = %18, %10
  %indvars.iv = phi i64 [ %indvars.iv.next, %18 ], [ %13, %10 ]
  %16 = trunc nuw i64 %indvars.iv to i32
  %17 = icmp sgt i32 %16, 0
  br i1 %17, label %18, label %.split.loop.exit35

18:                                               ; preds = %15
  %indvars.iv.next = add nsw i64 %indvars.iv, -1
  %19 = load ptr, ptr %8, align 8, !tbaa !56
  %20 = and i64 %indvars.iv.next, 4294967295
  %21 = getelementptr inbounds nuw i32, ptr %19, i64 %20
  %22 = load i32, ptr %21, align 4, !tbaa !31
  %23 = sext i32 %22 to i64
  %24 = getelementptr inbounds ptr, ptr %2, i64 %23
  %25 = load ptr, ptr %24, align 8, !tbaa !25
  %26 = load ptr, ptr %9, align 8, !tbaa !24
  %27 = getelementptr inbounds ptr, ptr %26, i64 %23
  %28 = load ptr, ptr %27, align 8, !tbaa !25
  %.not = icmp eq ptr %25, %28
  br i1 %.not, label %15, label %.split.loop.exit, !llvm.loop !65

.split.loop.exit:                                 ; preds = %18
  %indvars.le = trunc i64 %indvars.iv.next to i32
  br label %.split.loop.exit35

.split.loop.exit35:                               ; preds = %15, %.split.loop.exit
  %.024.lcssa = phi i32 [ %indvars.le, %.split.loop.exit ], [ %14, %15 ]
  %29 = tail call fastcc ptr @cuddBddVectorComposeRecur(ptr noundef %0, ptr noundef %11, ptr noundef %1, ptr noundef %2, i32 noundef %.024.lcssa)
  %.not27 = icmp eq ptr %29, null
  br i1 %.not27, label %30, label %.thread

30:                                               ; preds = %.split.loop.exit35
  tail call void @cuddHashTableQuit(ptr noundef nonnull %11) #7
  %31 = load i32, ptr %4, align 8, !tbaa !26
  %32 = icmp eq i32 %31, 1
  br i1 %32, label %.backedge, label %.loopexit

.backedge:                                        ; preds = %30, %.thread
  store i32 0, ptr %4, align 8, !tbaa !26
  %33 = tail call ptr @cuddHashTableInit(ptr noundef nonnull %0, i32 noundef 1, i32 noundef 2) #7
  %34 = icmp eq ptr %33, null
  br i1 %34, label %.loopexit, label %10, !llvm.loop !66

.thread:                                          ; preds = %.split.loop.exit35
  %35 = ptrtoint ptr %29 to i64
  %36 = and i64 %35, -2
  %37 = inttoptr i64 %36 to ptr
  %38 = getelementptr inbounds nuw i8, ptr %37, i64 4
  %39 = load i32, ptr %38, align 4, !tbaa !33
  %40 = add i32 %39, 1
  store i32 %40, ptr %38, align 4, !tbaa !33
  tail call void @cuddHashTableQuit(ptr noundef nonnull %11) #7
  %41 = load i32, ptr %4, align 8, !tbaa !26
  %42 = icmp eq i32 %41, 1
  br i1 %42, label %.backedge, label %43

43:                                               ; preds = %.thread
  %44 = getelementptr inbounds nuw i8, ptr %37, i64 4
  %45 = load i32, ptr %44, align 4, !tbaa !33
  %46 = add i32 %45, -1
  store i32 %46, ptr %44, align 4, !tbaa !33
  br label %.loopexit

.loopexit:                                        ; preds = %.backedge, %30, %3, %43
  %.0 = phi ptr [ %29, %43 ], [ null, %3 ], [ null, %30 ], [ null, %.backedge ]
  ret ptr %.0
}